; Function Attrs: nounwind uwtable
define ptr @l_Lake_OutStream_getLogger___rarg___lambda__1___boxed(ptr noundef %0, ptr noundef %1, ptr noundef %2, ptr noundef %3, ptr noundef %4) #1 {
  %6 = ptrtoint ptr %1 to i64
  %7 = and i64 %6, 1
  %.not = icmp eq i64 %7, 0
  br i1 %.not, label %8, label %lean_dec.exit9

8:                                                ; preds = %5
  %9 = load i32, ptr %1, align 4, !tbaa !4
  %10 = icmp sgt i32 %9, 1
  br i1 %10, label %11, label %13, !prof !9

11:                                               ; preds = %8
  %12 = add nsw i32 %9, -1
  store i32 %12, ptr %1, align 4, !tbaa !4
  br label %lean_dec.exit9

13:                                               ; preds = %8
  %.not.i = icmp eq i32 %9, 0
  br i1 %.not.i, label %lean_dec.exit9, label %14

14:                                               ; preds = %13
  tail call void @lean_dec_ref_cold(ptr noundef nonnull %1) #9
  br label %lean_dec.exit9

lean_dec.exit9:                                   ; preds = %14, %13, %11, %5
  %15 = ptrtoint ptr %2 to i64
  %16 = and i64 %15, 1
  %.not12 = icmp eq i64 %16, 0
  br i1 %.not12, label %17, label %lean_dec.exit

17:                                               ; preds = %lean_dec.exit9
  %18 = load i32, ptr %2, align 4, !tbaa !4
  %19 = icmp sgt i32 %18, 1
  br i1 %19, label %20, label %22, !prof !9

20:                                               ; preds = %17
  %21 = add nsw i32 %18, -1
  store i32 %21, ptr %2, align 4, !tbaa !4
  br label %lean_dec.exit

22:                                               ; preds = %17
  %.not.i10 = icmp eq i32 %18, 0
  br i1 %.not.i10, label %lean_dec.exit, label %23

23:                                               ; preds = %22
  tail call void @lean_dec_ref_cold(ptr noundef nonnull %2) #9
  br label %lean_dec.exit

lean_dec.exit:                                    ; preds = %23, %22, %20, %lean_dec.exit9
  tail call void @lean_inc_heartbeat() #9
  %24 = tail call noalias ptr @mi_malloc_small(i64 noundef 56) #9
  %25 = icmp eq ptr %24, null
  br i1 %25, label %26, label %l_Lake_OutStream_getLogger___rarg___lambda__1.exit

26:                                               ; preds = %lean_dec.exit
  tail call void @lean_internal_panic_out_of_memory() #10
  unreachable

l_Lake_OutStream_getLogger___rarg___lambda__1.exit: ; preds = %lean_dec.exit
  %27 = and i64 %15, 510
  %28 = or disjoint i64 %27, 1
  %29 = inttoptr i64 %28 to ptr
  %30 = and i64 %6, 510
  %31 = or disjoint i64 %30, 1
  %32 = inttoptr i64 %31 to ptr
  %33 = getelementptr inbounds nuw i8, ptr %24, i64 4
  store i32 1, ptr %24, align 4, !tbaa !4
  store i32 -184549320, ptr %33, align 4
  %34 = getelementptr inbounds nuw i8, ptr %24, i64 8
  store ptr @l_Lake_logToStream___boxed, ptr %34, align 8, !tbaa !10
  %35 = getelementptr inbounds nuw i8, ptr %24, i64 16
  store i16 5, ptr %35, align 8, !tbaa !12
  %36 = getelementptr inbounds nuw i8, ptr %24, i64 18
  store i16 4, ptr %36, align 2, !tbaa !12
  %37 = getelementptr inbounds nuw i8, ptr %24, i64 24
  store ptr %4, ptr %37, align 8, !tbaa !10
  %38 = getelementptr inbounds nuw i8, ptr %24, i64 32
  store ptr %0, ptr %38, align 8, !tbaa !10
  %39 = getelementptr inbounds nuw i8, ptr %24, i64 40
  store ptr %32, ptr %39, align 8, !tbaa !10
  %40 = getelementptr inbounds nuw i8, ptr %24, i64 48
  store ptr %29, ptr %40, align 8, !tbaa !10
  %41 = tail call ptr @lean_apply_2(ptr noundef %3, ptr noundef nonnull inttoptr (i64 1 to ptr), ptr noundef nonnull %24) #9
  ret ptr %41
}